target datalayout = "e-m:e-p270:32:32-p271:32:32-p272:64:64-i64:64-i128:128-f80:128-n8:16:32:64-S128"
target triple = "x86_64-pc-linux-gnu"

%"struct.duckdb_libpgquery::base_yy_extra_type" = type { %"struct.duckdb_libpgquery::core_yy_extra_type", i8, i32, %"union.duckdb_libpgquery::core_YYSTYPE", i32, ptr, i8, ptr }
%"struct.duckdb_libpgquery::core_yy_extra_type" = type { ptr, i64, ptr, i32, i32, i8, i8, ptr, i32, i32, i32, ptr, i32, i8, i8 }
%"union.duckdb_libpgquery::core_YYSTYPE" = type { ptr }

; Function Attrs: mustprogress uwtable
define hidden noundef ptr @_ZN17duckdb_libpgquery10raw_parserEPKc(ptr noundef %0) #0 {
  %2 = alloca ptr, align 8
  %3 = alloca ptr, align 8
  %4 = alloca ptr, align 8
  %5 = alloca %"struct.duckdb_libpgquery::base_yy_extra_type", align 8
  %6 = alloca i32, align 4
  %7 = alloca i32, align 4
  store ptr %0, ptr %3, align 8, !tbaa !3
  call void @llvm.lifetime.start.p0(i64 8, ptr %4) #14
  call void @llvm.lifetime.start.p0(i64 128, ptr %5) #14
  call void @llvm.lifetime.start.p0(i64 4, ptr %6) #14
  %8 = load ptr, ptr %3, align 8, !tbaa !3
  %9 = getelementptr inbounds nuw %"struct.duckdb_libpgquery::base_yy_extra_type", ptr %5, i32 0, i32 0
  %10 = call noundef ptr @_ZN17duckdb_libpgquery12scanner_initEPKcPNS_18core_yy_extra_typeEPKNS_13PGScanKeywordEi(ptr noundef %8, ptr noundef %9, ptr noundef @_ZN17duckdb_libpgqueryL12ScanKeywordsE, i32 noundef 480)
  store ptr %10, ptr %4, align 8, !tbaa !8
  %11 = getelementptr inbounds nuw %"struct.duckdb_libpgquery::base_yy_extra_type", ptr %5, i32 0, i32 1
  store i8 0, ptr %11, align 8, !tbaa !9
  call void @_ZN17duckdb_libpgquery11parser_initEPNS_18base_yy_extra_typeE(ptr noundef %5)
  %12 = load ptr, ptr %4, align 8, !tbaa !8
  %13 = call noundef i32 @_ZN17duckdb_libpgquery12base_yyparseEPv(ptr noundef %12)
  store i32 %13, ptr %6, align 4, !tbaa !17
  %14 = load ptr, ptr %4, align 8, !tbaa !8
  call void @_ZN17duckdb_libpgquery14scanner_finishEPv(ptr noundef %14)
  %15 = load i32, ptr %6, align 4, !tbaa !17
  %16 = icmp ne i32 %15, 0
  br i1 %16, label %17, label %18

17:                                               ; preds = %1
  store ptr null, ptr %2, align 8
  store i32 1, ptr %7, align 4
  br label %21

18:                                               ; preds = %1
  %19 = getelementptr inbounds nuw %"struct.duckdb_libpgquery::base_yy_extra_type", ptr %5, i32 0, i32 7
  %20 = load ptr, ptr %19, align 8, !tbaa !18
  store ptr %20, ptr %2, align 8
  store i32 1, ptr %7, align 4
  br label %21

21:                                               ; preds = %18, %17
  call void @llvm.lifetime.end.p0(i64 4, ptr %6) #14
  call void @llvm.lifetime.end.p0(i64 128, ptr %5) #14
  call void @llvm.lifetime.end.p0(i64 8, ptr %4) #14
  %22 = load ptr, ptr %2, align 8
  ret ptr %22
}