; Function Attrs: mustprogress uwtable
define hidden noundef ptr @_ZN17duckdb_libpgquery10raw_parserEPKc(ptr noundef %0) local_unnamed_addr #0 {
  %2 = alloca %"struct.duckdb_libpgquery::base_yy_extra_type", align 8
  call void @llvm.lifetime.start.p0(i64 128, ptr nonnull %2) #15
  %3 = call noundef ptr @_ZN17duckdb_libpgquery12scanner_initEPKcPNS_18core_yy_extra_typeEPKNS_13PGScanKeywordEi(ptr noundef %0, ptr noundef nonnull %2, ptr noundef nonnull @_ZN17duckdb_libpgqueryL12ScanKeywordsE, i32 noundef 480)
  %4 = getelementptr inbounds nuw i8, ptr %2, i64 80
  store i8 0, ptr %4, align 8, !tbaa !3
  call void @_ZN17duckdb_libpgquery11parser_initEPNS_18base_yy_extra_typeE(ptr noundef nonnull %2)
  %5 = call noundef i32 @_ZN17duckdb_libpgquery12base_yyparseEPv(ptr noundef %3)
  call void @_ZN17duckdb_libpgquery14scanner_finishEPv(ptr noundef %3)
  %.not = icmp eq i32 %5, 0
  %6 = getelementptr inbounds nuw i8, ptr %2, i64 120
  %7 = load ptr, ptr %6, align 8
  %.0 = select i1 %.not, ptr %7, ptr null
  call void @llvm.lifetime.end.p0(i64 128, ptr nonnull %2) #15
  ret ptr %.0
}